target datalayout = "e-m:e-p270:32:32-p271:32:32-p272:64:64-i64:64-i128:128-f80:128-n8:16:32:64-S128"
target triple = "x86_64-pc-linux-gnu"

%struct.AVFormatContext = type { ptr, ptr, ptr, ptr, ptr, i32, i32, ptr, i32, ptr, i32, ptr, ptr, i64, i64, i64, i32, i32, i32, i64, i64, ptr, i32, i32, ptr, i32, i32, i32, i32, ptr, i64, i32, i32, %struct.AVIOInterruptCB, i32, i32, i32, i32, i64, i32, i32, i32, i32, i32, i32, i32, i32, i32, i32, i32, i32, i64, i32, i32, i32, i32, i32, ptr, ptr, ptr, ptr, i32, ptr, ptr, ptr, ptr, i32, ptr, ptr, i64, ptr, ptr, ptr, i64 }
%struct.AVIOInterruptCB = type { ptr, ptr }
%struct.RTPMuxContext = type { ptr, ptr, ptr, i32, i32, ptr, i32, i32, i32, i32, i32, i32, i64, i64, i32, i32, i32, i32, ptr, ptr, i32, i32, i32, i32, i32 }

; Function Attrs: nounwind uwtable
define internal i32 @rtp_write_trailer(ptr noundef %0) #0 {
  %2 = alloca ptr, align 8
  %3 = alloca ptr, align 8
  store ptr %0, ptr %2, align 8, !tbaa !4
  call void @llvm.lifetime.start.p0(i64 8, ptr %3) #6
  %4 = load ptr, ptr %2, align 8, !tbaa !4
  %5 = getelementptr inbounds nuw %struct.AVFormatContext, ptr %4, i32 0, i32 3
  %6 = load ptr, ptr %5, align 8, !tbaa !13
  store ptr %6, ptr %3, align 8, !tbaa !28
  %7 = load ptr, ptr %2, align 8, !tbaa !4
  %8 = getelementptr inbounds nuw %struct.AVFormatContext, ptr %7, i32 0, i32 4
  %9 = load ptr, ptr %8, align 8, !tbaa !30
  %10 = icmp ne ptr %9, null
  br i1 %10, label %11, label %20

11:                                               ; preds = %1
  %12 = load ptr, ptr %3, align 8, !tbaa !28
  %13 = getelementptr inbounds nuw %struct.RTPMuxContext, ptr %12, i32 0, i32 23
  %14 = load i32, ptr %13, align 4, !tbaa !83
  %15 = and i32 %14, 16
  %16 = icmp ne i32 %15, 0
  br i1 %16, label %17, label %20

17:                                               ; preds = %11
  %18 = load ptr, ptr %2, align 8, !tbaa !4
  %19 = call i64 @ff_ntp_time()
  call void @rtcp_send_sr(ptr noundef %18, i64 noundef %19, i32 noundef 1)
  br label %20

20:                                               ; preds = %17, %11, %1
  %21 = load ptr, ptr %3, align 8, !tbaa !28
  %22 = getelementptr inbounds nuw %struct.RTPMuxContext, ptr %21, i32 0, i32 18
  call void @av_freep(ptr noundef %22)
  call void @llvm.lifetime.end.p0(i64 8, ptr %3) #6
  ret i32 0
}