; Function Attrs: nounwind uwtable
define internal noundef i32 @rtp_write_trailer(ptr noundef %0) #0 {
  %2 = getelementptr inbounds nuw i8, ptr %0, i64 24
  %3 = load ptr, ptr %2, align 8, !tbaa !4
  %4 = getelementptr inbounds nuw i8, ptr %0, i64 32
  %5 = load ptr, ptr %4, align 8, !tbaa !24
  %.not = icmp eq ptr %5, null
  br i1 %.not, label %12, label %6

6:                                                ; preds = %1
  %7 = getelementptr inbounds nuw i8, ptr %3, i64 124
  %8 = load i32, ptr %7, align 4, !tbaa !76
  %9 = and i32 %8, 16
  %.not5 = icmp eq i32 %9, 0
  br i1 %.not5, label %12, label %10

10:                                               ; preds = %6
  %11 = tail call i64 @ff_ntp_time() #7
  tail call fastcc void @rtcp_send_sr(ptr noundef nonnull %0, i64 noundef %11, i32 noundef 1)
  br label %12

12:                                               ; preds = %10, %6, %1
  %13 = getelementptr inbounds nuw i8, ptr %3, i64 96
  tail call void @av_freep(ptr noundef nonnull %13) #7
  ret i32 0
}